target datalayout = "e-m:e-p270:32:32-p271:32:32-p272:64:64-i64:64-i128:128-f80:128-n8:16:32:64-S128"
target triple = "x86_64-pc-linux-gnu"

%struct.Tuplesortstate = type { %struct.TuplesortPublic, i32, i8, i8, i32, i64, i64, i64, i32, i64, i8, i32, ptr, ptr, i32, i32, i8, i8, ptr, ptr, ptr, i64, ptr, i32, ptr, i32, i32, ptr, i32, i32, ptr, ptr, i32, i8, i64, i32, i8, i32, ptr, i32, i64, %struct.PGRUsage }
%struct.TuplesortPublic = type { ptr, ptr, ptr, ptr, ptr, ptr, ptr, ptr, ptr, i8, i32, ptr, ptr, i32, i8, ptr }
%struct.PGRUsage = type { %struct.timeval, %struct.rusage }
%struct.timeval = type { i64, i64 }
%struct.rusage = type { %struct.timeval, %struct.timeval, %union.anon, %union.anon.0, %union.anon.1, %union.anon.2, %union.anon.3, %union.anon.4, %union.anon.5, %union.anon.6, %union.anon.7, %union.anon.8, %union.anon.9, %union.anon.10, %union.anon.11, %union.anon.12 }
%union.anon = type { i64 }
%union.anon.0 = type { i64 }
%union.anon.1 = type { i64 }
%union.anon.2 = type { i64 }
%union.anon.3 = type { i64 }
%union.anon.4 = type { i64 }
%union.anon.5 = type { i64 }
%union.anon.6 = type { i64 }
%union.anon.7 = type { i64 }
%union.anon.8 = type { i64 }
%union.anon.9 = type { i64 }
%union.anon.10 = type { i64 }
%union.anon.11 = type { i64 }
%union.anon.12 = type { i64 }

@.str.1 = private unnamed_addr constant [12 x i8] c"tuplesort.c\00", align 1
@CurrentMemoryContext = external global ptr, align 8
@.str.20 = private unnamed_addr constant [14 x i8] c"Caller tuples\00", align 1
@.str.21 = private unnamed_addr constant [37 x i8] c"insufficient memory allowed for sort\00", align 1
@__func__.tuplesort_begin_batch = private unnamed_addr constant [22 x i8] c"tuplesort_begin_batch\00", align 1

; Function Attrs: inlinehint nounwind uwtable
define internal ptr @MemoryContextSwitchTo(ptr noundef %0) #4 {
  %2 = alloca ptr, align 8
  %3 = alloca ptr, align 8
  store ptr %0, ptr %2, align 8
  call void @llvm.lifetime.start.p0(i64 8, ptr %3) #9
  %4 = load ptr, ptr @CurrentMemoryContext, align 8
  store ptr %4, ptr %3, align 8
  %5 = load ptr, ptr %2, align 8
  store ptr %5, ptr @CurrentMemoryContext, align 8
  %6 = load ptr, ptr %3, align 8
  call void @llvm.lifetime.end.p0(i64 8, ptr %3) #9
  ret ptr %6
}

; Function Attrs: nounwind uwtable
define internal void @tuplesort_begin_batch(ptr noundef %0) #0 {
  %2 = alloca ptr, align 8
  %3 = alloca ptr, align 8
  %4 = alloca i32, align 4
  store ptr %0, ptr %2, align 8
  call void @llvm.lifetime.start.p0(i64 8, ptr %3) #9
  %5 = load ptr, ptr %2, align 8
  %6 = getelementptr inbounds nuw %struct.Tuplesortstate, ptr %5, i32 0, i32 0
  %7 = getelementptr inbounds nuw %struct.TuplesortPublic, ptr %6, i32 0, i32 6
  %8 = load ptr, ptr %7, align 8
  %9 = call ptr @MemoryContextSwitchTo(ptr noundef %8)
  store ptr %9, ptr %3, align 8
  %10 = load ptr, ptr %2, align 8
  %11 = getelementptr inbounds nuw %struct.Tuplesortstate, ptr %10, i32 0, i32 0
  %12 = getelementptr inbounds nuw %struct.TuplesortPublic, ptr %11, i32 0, i32 13
  %13 = load i32, ptr %12, align 8
  %14 = and i32 %13, 2
  %15 = icmp eq i32 %14, 0
  br i1 %15, label %16, label %25

16:                                               ; preds = %1
  %17 = load ptr, ptr %2, align 8
  %18 = getelementptr inbounds nuw %struct.Tuplesortstate, ptr %17, i32 0, i32 0
  %19 = getelementptr inbounds nuw %struct.TuplesortPublic, ptr %18, i32 0, i32 7
  %20 = load ptr, ptr %19, align 8
  %21 = call ptr @BumpContextCreate(ptr noundef %20, ptr noundef @.str.20, i64 noundef 0, i64 noundef 8192, i64 noundef 8388608)
  %22 = load ptr, ptr %2, align 8
  %23 = getelementptr inbounds nuw %struct.Tuplesortstate, ptr %22, i32 0, i32 0
  %24 = getelementptr inbounds nuw %struct.TuplesortPublic, ptr %23, i32 0, i32 8
  store ptr %21, ptr %24, align 8
  br label %37

25:                                               ; preds = %1
  br label %26

26:                                               ; preds = %25
  br label %27

27:                                               ; preds = %26
  br label %28

28:                                               ; preds = %27
  store i32 1, ptr %4, align 4
  %29 = load ptr, ptr %2, align 8
  %30 = getelementptr inbounds nuw %struct.Tuplesortstate, ptr %29, i32 0, i32 0
  %31 = getelementptr inbounds nuw %struct.TuplesortPublic, ptr %30, i32 0, i32 7
  %32 = load ptr, ptr %31, align 8
  %33 = call ptr @AllocSetContextCreateInternal(ptr noundef %32, ptr noundef @.str.20, i64 noundef 0, i64 noundef 8192, i64 noundef 8388608)
  %34 = load ptr, ptr %2, align 8
  %35 = getelementptr inbounds nuw %struct.Tuplesortstate, ptr %34, i32 0, i32 0
  %36 = getelementptr inbounds nuw %struct.TuplesortPublic, ptr %35, i32 0, i32 8
  store ptr %33, ptr %36, align 8
  br label %37

37:                                               ; preds = %28, %16
  %38 = load ptr, ptr %2, align 8
  %39 = getelementptr inbounds nuw %struct.Tuplesortstate, ptr %38, i32 0, i32 1
  store i32 0, ptr %39, align 8
  %40 = load ptr, ptr %2, align 8
  %41 = getelementptr inbounds nuw %struct.Tuplesortstate, ptr %40, i32 0, i32 2
  store i8 0, ptr %41, align 4
  %42 = load ptr, ptr %2, align 8
  %43 = getelementptr inbounds nuw %struct.Tuplesortstate, ptr %42, i32 0, i32 3
  store i8 0, ptr %43, align 1
  %44 = load ptr, ptr %2, align 8
  %45 = getelementptr inbounds nuw %struct.Tuplesortstate, ptr %44, i32 0, i32 7
  %46 = load i64, ptr %45, align 8
  %47 = load ptr, ptr %2, align 8
  %48 = getelementptr inbounds nuw %struct.Tuplesortstate, ptr %47, i32 0, i32 6
  store i64 %46, ptr %48, align 8
  %49 = load ptr, ptr %2, align 8
  %50 = getelementptr inbounds nuw %struct.Tuplesortstate, ptr %49, i32 0, i32 12
  store ptr null, ptr %50, align 8
  %51 = load ptr, ptr %2, align 8
  %52 = getelementptr inbounds nuw %struct.Tuplesortstate, ptr %51, i32 0, i32 14
  store i32 0, ptr %52, align 8
  %53 = load ptr, ptr %2, align 8
  %54 = getelementptr inbounds nuw %struct.Tuplesortstate, ptr %53, i32 0, i32 16
  store i8 1, ptr %54, align 8
  %55 = load ptr, ptr %2, align 8
  %56 = getelementptr inbounds nuw %struct.Tuplesortstate, ptr %55, i32 0, i32 17
  store i8 0, ptr %56, align 1
  %57 = load ptr, ptr %2, align 8
  %58 = getelementptr inbounds nuw %struct.Tuplesortstate, ptr %57, i32 0, i32 13
  %59 = load ptr, ptr %58, align 8
  %60 = icmp ne ptr %59, null
  br i1 %60, label %61, label %75

61:                                               ; preds = %37
  %62 = load ptr, ptr %2, align 8
  %63 = getelementptr inbounds nuw %struct.Tuplesortstate, ptr %62, i32 0, i32 15
  %64 = load i32, ptr %63, align 4
  %65 = sext i32 %64 to i64
  %66 = icmp ne i64 %65, 1024
  br i1 %66, label %67, label %75

67:                                               ; preds = %61
  %68 = load ptr, ptr %2, align 8
  %69 = getelementptr inbounds nuw %struct.Tuplesortstate, ptr %68, i32 0, i32 13
  %70 = load ptr, ptr %69, align 8
  call void @pfree(ptr noundef %70)
  %71 = load ptr, ptr %2, align 8
  %72 = getelementptr inbounds nuw %struct.Tuplesortstate, ptr %71, i32 0, i32 13
  store ptr null, ptr %72, align 8
  %73 = load ptr, ptr %2, align 8
  %74 = getelementptr inbounds nuw %struct.Tuplesortstate, ptr %73, i32 0, i32 15
  store i32 1024, ptr %74, align 4
  br label %75

75:                                               ; preds = %67, %61, %37
  %76 = load ptr, ptr %2, align 8
  %77 = getelementptr inbounds nuw %struct.Tuplesortstate, ptr %76, i32 0, i32 13
  %78 = load ptr, ptr %77, align 8
  %79 = icmp eq ptr %78, null
  br i1 %79, label %80, label %97

80:                                               ; preds = %75
  %81 = load ptr, ptr %2, align 8
  %82 = getelementptr inbounds nuw %struct.Tuplesortstate, ptr %81, i32 0, i32 15
  %83 = load i32, ptr %82, align 4
  %84 = sext i32 %83 to i64
  %85 = mul i64 %84, 24
  %86 = call ptr @palloc(i64 noundef %85)
  %87 = load ptr, ptr %2, align 8
  %88 = getelementptr inbounds nuw %struct.Tuplesortstate, ptr %87, i32 0, i32 13
  store ptr %86, ptr %88, align 8
  %89 = load ptr, ptr %2, align 8
  %90 = getelementptr inbounds nuw %struct.Tuplesortstate, ptr %89, i32 0, i32 13
  %91 = load ptr, ptr %90, align 8
  %92 = call i64 @GetMemoryChunkSpace(ptr noundef %91)
  %93 = load ptr, ptr %2, align 8
  %94 = getelementptr inbounds nuw %struct.Tuplesortstate, ptr %93, i32 0, i32 6
  %95 = load i64, ptr %94, align 8
  %96 = sub i64 %95, %92
  store i64 %96, ptr %94, align 8
  br label %97

97:                                               ; preds = %80, %75
  %98 = load ptr, ptr %2, align 8
  %99 = getelementptr inbounds nuw %struct.Tuplesortstate, ptr %98, i32 0, i32 6
  %100 = load i64, ptr %99, align 8
  %101 = icmp slt i64 %100, 0
  br i1 %101, label %102, label %118

102:                                              ; preds = %97
  %103 = load ptr, ptr %2, align 8
  %104 = getelementptr inbounds nuw %struct.Tuplesortstate, ptr %103, i32 0, i32 17
  %105 = load i8, ptr %104, align 1, !range !4, !noundef !5
  %106 = trunc i8 %105 to i1
  br i1 %106, label %118, label %107

107:                                              ; preds = %102
  br label %108

108:                                              ; preds = %107
  br i1 true, label %109, label %111

109:                                              ; preds = %108
  %110 = call zeroext i1 @errstart_cold(i32 noundef 21, ptr noundef null) #10
  br i1 %110, label %113, label %115

111:                                              ; preds = %108
  %112 = call zeroext i1 @errstart(i32 noundef 21, ptr noundef null)
  br i1 %112, label %113, label %115

113:                                              ; preds = %111, %109
  %114 = call i32 (ptr, ...) @errmsg_internal(ptr noundef @.str.21)
  call void @errfinish(ptr noundef @.str.1, i32 noundef 811, ptr noundef @__func__.tuplesort_begin_batch)
  br label %115

115:                                              ; preds = %113, %111, %109
  unreachable

116:                                              ; No predecessors!
  br label %117

117:                                              ; preds = %116
  br label %118

118:                                              ; preds = %117, %102, %97
  %119 = load ptr, ptr %2, align 8
  %120 = getelementptr inbounds nuw %struct.Tuplesortstate, ptr %119, i32 0, i32 23
  store i32 0, ptr %120, align 8
  %121 = load ptr, ptr %2, align 8
  %122 = getelementptr inbounds nuw %struct.Tuplesortstate, ptr %121, i32 0, i32 31
  store ptr null, ptr %122, align 8
  %123 = load ptr, ptr %3, align 8
  %124 = call ptr @MemoryContextSwitchTo(ptr noundef %123)
  call void @llvm.lifetime.end.p0(i64 8, ptr %3) #9
  ret void
}