; Function Attrs: nounwind uwtable
define internal fastcc void @tuplesort_begin_batch(ptr noundef captures(none) initializes((64, 72), (112, 118), (136, 144), (176, 184), (192, 196), (200, 202)) %0) unnamed_addr #0 {
  %2 = getelementptr inbounds nuw i8, ptr %0, i64 48
  %3 = load ptr, ptr %2, align 8
  %4 = load ptr, ptr @CurrentMemoryContext, align 8
  store ptr %3, ptr @CurrentMemoryContext, align 8
  %5 = getelementptr inbounds nuw i8, ptr %0, i64 96
  %6 = load i32, ptr %5, align 8
  %7 = and i32 %6, 2
  %8 = icmp eq i32 %7, 0
  %9 = getelementptr inbounds nuw i8, ptr %0, i64 56
  %10 = load ptr, ptr %9, align 8
  br i1 %8, label %11, label %13

11:                                               ; preds = %1
  %12 = tail call ptr @BumpContextCreate(ptr noundef %10, ptr noundef nonnull @.str.20, i64 noundef 0, i64 noundef 8192, i64 noundef 8388608) #13
  br label %15

13:                                               ; preds = %1
  %14 = tail call ptr @AllocSetContextCreateInternal(ptr noundef %10, ptr noundef nonnull @.str.20, i64 noundef 0, i64 noundef 8192, i64 noundef 8388608) #13
  br label %15

15:                                               ; preds = %13, %11
  %.sink = phi ptr [ %12, %11 ], [ %14, %13 ]
  %16 = getelementptr inbounds nuw i8, ptr %0, i64 64
  store ptr %.sink, ptr %16, align 8
  %17 = getelementptr inbounds nuw i8, ptr %0, i64 112
  store i32 0, ptr %17, align 8
  %18 = getelementptr inbounds nuw i8, ptr %0, i64 116
  store i8 0, ptr %18, align 4
  %19 = getelementptr inbounds nuw i8, ptr %0, i64 117
  store i8 0, ptr %19, align 1
  %20 = getelementptr inbounds nuw i8, ptr %0, i64 144
  %21 = load i64, ptr %20, align 8
  %22 = getelementptr inbounds nuw i8, ptr %0, i64 136
  store i64 %21, ptr %22, align 8
  %23 = getelementptr inbounds nuw i8, ptr %0, i64 176
  store ptr null, ptr %23, align 8
  %24 = getelementptr inbounds nuw i8, ptr %0, i64 192
  store i32 0, ptr %24, align 8
  %25 = getelementptr inbounds nuw i8, ptr %0, i64 200
  store i8 1, ptr %25, align 8
  %26 = getelementptr inbounds nuw i8, ptr %0, i64 201
  store i8 0, ptr %26, align 1
  %27 = getelementptr inbounds nuw i8, ptr %0, i64 184
  %28 = load ptr, ptr %27, align 8
  %.not = icmp eq ptr %28, null
  %.phi.trans.insert = getelementptr inbounds nuw i8, ptr %0, i64 196
  %.pre = load i32, ptr %.phi.trans.insert, align 4
  br i1 %.not, label %..thread_crit_edge33, label %31

..thread_crit_edge33:                             ; preds = %15
  %29 = sext i32 %.pre to i64
  %30 = mul nsw i64 %29, 24
  br label %.thread

31:                                               ; preds = %15
  %.not30 = icmp eq i32 %.pre, 1024
  br i1 %.not30, label %thread-pre-split31, label %32

32:                                               ; preds = %31
  tail call void @pfree(ptr noundef nonnull %28) #13
  store ptr null, ptr %27, align 8
  store i32 1024, ptr %.phi.trans.insert, align 4
  br label %.thread

.thread:                                          ; preds = %..thread_crit_edge33, %32
  %33 = phi i64 [ %30, %..thread_crit_edge33 ], [ 24576, %32 ]
  %34 = tail call ptr @palloc(i64 noundef %33) #13
  store ptr %34, ptr %27, align 8
  %35 = tail call i64 @GetMemoryChunkSpace(ptr noundef %34) #13
  %36 = load i64, ptr %22, align 8
  %37 = sub i64 %36, %35
  store i64 %37, ptr %22, align 8
  br label %thread-pre-split31

thread-pre-split31:                               ; preds = %31, %.thread
  %38 = phi i64 [ %37, %.thread ], [ %21, %31 ]
  %39 = icmp slt i64 %38, 0
  br i1 %39, label %40, label %46

40:                                               ; preds = %thread-pre-split31
  %41 = load i8, ptr %26, align 1, !range !4, !noundef !5
  %42 = trunc nuw i8 %41 to i1
  br i1 %42, label %46, label %43

43:                                               ; preds = %40
  %44 = tail call zeroext i1 @errstart_cold(i32 noundef 21, ptr noundef null) #12
  tail call void @llvm.assume(i1 %44)
  %45 = tail call i32 (ptr, ...) @errmsg_internal(ptr noundef nonnull @.str.21) #13
  tail call void @errfinish(ptr noundef nonnull @.str.1, i32 noundef 811, ptr noundef nonnull @__func__.tuplesort_begin_batch) #13
  unreachable

46:                                               ; preds = %40, %thread-pre-split31
  %47 = getelementptr inbounds nuw i8, ptr %0, i64 248
  store i32 0, ptr %47, align 8
  %48 = getelementptr inbounds nuw i8, ptr %0, i64 296
  store ptr null, ptr %48, align 8
  store ptr %4, ptr @CurrentMemoryContext, align 8
  ret void
}